target datalayout = "e-m:e-p270:32:32-p271:32:32-p272:64:64-i64:64-i128:128-f80:128-n8:16:32:64-S128"
target triple = "x86_64-pc-linux-gnu"

%union.LWLockPadded = type { %struct.LWLock, [112 x i8] }
%struct.LWLock = type { i16, %struct.pg_atomic_uint32, %struct.proclist_head }
%struct.pg_atomic_uint32 = type { i32 }
%struct.proclist_head = type { i32, i32 }
%struct.MultiXactStateData = type { i32, i32, i8, i32, i32, i32, i8, i32, i32, i32, i32, i32, %struct.ConditionVariable, [0 x i32] }
%struct.ConditionVariable = type { i8, %struct.proclist_head }

@OldestMemberMXactId = internal global ptr null, align 8
@MainLWLockArray = external global ptr, align 8
@MultiXactState = internal global ptr null, align 8
@OldestVisibleMXactId = internal global ptr null, align 8
@MaxBackends = external global i32, align 4
@max_prepared_xacts = external global i32, align 4

; Function Attrs: nounwind uwtable
define dso_local zeroext i1 @MultiXactIdPrecedes(i32 noundef %0, i32 noundef %1) #0 {
  %3 = alloca i32, align 4
  %4 = alloca i32, align 4
  %5 = alloca i32, align 4
  store i32 %0, ptr %3, align 4
  store i32 %1, ptr %4, align 4
  call void @llvm.lifetime.start.p0(i64 4, ptr %5) #9
  %6 = load i32, ptr %3, align 4
  %7 = load i32, ptr %4, align 4
  %8 = sub i32 %6, %7
  store i32 %8, ptr %5, align 4
  %9 = load i32, ptr %5, align 4
  %10 = icmp slt i32 %9, 0
  call void @llvm.lifetime.end.p0(i64 4, ptr %5) #9
  ret i1 %10
}

; Function Attrs: nounwind uwtable
define dso_local i32 @GetOldestMultiXactId() #0 {
  %1 = alloca i32, align 4
  %2 = alloca i32, align 4
  %3 = alloca i32, align 4
  %4 = alloca i32, align 4
  call void @llvm.lifetime.start.p0(i64 4, ptr %1) #9
  call void @llvm.lifetime.start.p0(i64 4, ptr %2) #9
  call void @llvm.lifetime.start.p0(i64 4, ptr %3) #9
  %5 = load ptr, ptr @MainLWLockArray, align 8
  %6 = getelementptr inbounds %union.LWLockPadded, ptr %5, i64 13
  %7 = call zeroext i1 @LWLockAcquire(ptr noundef %6, i32 noundef 1)
  %8 = load ptr, ptr @MultiXactState, align 8
  %9 = getelementptr inbounds nuw %struct.MultiXactStateData, ptr %8, i32 0, i32 0
  %10 = load i32, ptr %9, align 4
  store i32 %10, ptr %2, align 4
  %11 = load i32, ptr %2, align 4
  %12 = icmp ult i32 %11, 1
  br i1 %12, label %13, label %14

13:                                               ; preds = %0
  store i32 1, ptr %2, align 4
  br label %14

14:                                               ; preds = %13, %0
  %15 = load i32, ptr %2, align 4
  store i32 %15, ptr %1, align 4
  store i32 0, ptr %3, align 4
  br label %16

16:                                               ; preds = %51, %14
  %17 = load i32, ptr %3, align 4
  %18 = load i32, ptr @MaxBackends, align 4
  %19 = load i32, ptr @max_prepared_xacts, align 4
  %20 = add i32 %18, %19
  %21 = icmp slt i32 %17, %20
  br i1 %21, label %22, label %54

22:                                               ; preds = %16
  call void @llvm.lifetime.start.p0(i64 4, ptr %4) #9
  %23 = load ptr, ptr @OldestMemberMXactId, align 8
  %24 = load i32, ptr %3, align 4
  %25 = sext i32 %24 to i64
  %26 = getelementptr inbounds i32, ptr %23, i64 %25
  %27 = load i32, ptr %26, align 4
  store i32 %27, ptr %4, align 4
  %28 = load i32, ptr %4, align 4
  %29 = icmp ne i32 %28, 0
  br i1 %29, label %30, label %36

30:                                               ; preds = %22
  %31 = load i32, ptr %4, align 4
  %32 = load i32, ptr %1, align 4
  %33 = call zeroext i1 @MultiXactIdPrecedes(i32 noundef %31, i32 noundef %32)
  br i1 %33, label %34, label %36

34:                                               ; preds = %30
  %35 = load i32, ptr %4, align 4
  store i32 %35, ptr %1, align 4
  br label %36

36:                                               ; preds = %34, %30, %22
  %37 = load ptr, ptr @OldestVisibleMXactId, align 8
  %38 = load i32, ptr %3, align 4
  %39 = sext i32 %38 to i64
  %40 = getelementptr inbounds i32, ptr %37, i64 %39
  %41 = load i32, ptr %40, align 4
  store i32 %41, ptr %4, align 4
  %42 = load i32, ptr %4, align 4
  %43 = icmp ne i32 %42, 0
  br i1 %43, label %44, label %50

44:                                               ; preds = %36
  %45 = load i32, ptr %4, align 4
  %46 = load i32, ptr %1, align 4
  %47 = call zeroext i1 @MultiXactIdPrecedes(i32 noundef %45, i32 noundef %46)
  br i1 %47, label %48, label %50

48:                                               ; preds = %44
  %49 = load i32, ptr %4, align 4
  store i32 %49, ptr %1, align 4
  br label %50

50:                                               ; preds = %48, %44, %36
  call void @llvm.lifetime.end.p0(i64 4, ptr %4) #9
  br label %51

51:                                               ; preds = %50
  %52 = load i32, ptr %3, align 4
  %53 = add i32 %52, 1
  store i32 %53, ptr %3, align 4
  br label %16, !llvm.loop !21

54:                                               ; preds = %16
  %55 = load ptr, ptr @MainLWLockArray, align 8
  %56 = getelementptr inbounds %union.LWLockPadded, ptr %55, i64 13
  call void @LWLockRelease(ptr noundef %56)
  %57 = load i32, ptr %1, align 4
  call void @llvm.lifetime.end.p0(i64 4, ptr %3) #9
  call void @llvm.lifetime.end.p0(i64 4, ptr %2) #9
  call void @llvm.lifetime.end.p0(i64 4, ptr %1) #9
  ret i32 %57
}