; Function Attrs: nounwind uwtable
define dso_local i32 @GetOldestMultiXactId() local_unnamed_addr #0 {
  %1 = load ptr, ptr @MainLWLockArray, align 8
  %2 = getelementptr inbounds nuw i8, ptr %1, i64 1664
  %3 = tail call zeroext i1 @LWLockAcquire(ptr noundef nonnull %2, i32 noundef 1) #13
  %4 = load ptr, ptr @MultiXactState, align 8
  %5 = load i32, ptr %4, align 4
  %spec.store.select = tail call i32 @llvm.umax.i32(i32 %5, i32 1)
  %6 = load i32, ptr @MaxBackends, align 4
  %7 = load i32, ptr @max_prepared_xacts, align 4
  %8 = add i32 %7, %6
  %9 = icmp sgt i32 %8, 0
  br i1 %9, label %.lr.ph, label %._crit_edge

.lr.ph:                                           ; preds = %0
  %10 = load ptr, ptr @OldestMemberMXactId, align 8
  %11 = load ptr, ptr @OldestVisibleMXactId, align 8
  %wide.trip.count = zext nneg i32 %8 to i64
  br label %12

12:                                               ; preds = %.lr.ph, %12
  %indvars.iv = phi i64 [ 0, %.lr.ph ], [ %indvars.iv.next, %12 ]
  %.01520 = phi i32 [ %spec.store.select, %.lr.ph ], [ %.2, %12 ]
  %13 = getelementptr inbounds nuw i32, ptr %10, i64 %indvars.iv
  %14 = load i32, ptr %13, align 4
  %.not = icmp eq i32 %14, 0
  %15 = sub i32 %14, %.01520
  %16 = icmp slt i32 %15, 0
  %spec.select = select i1 %16, i32 %14, i32 %.01520
  %.1 = select i1 %.not, i32 %.01520, i32 %spec.select
  %17 = getelementptr inbounds nuw i32, ptr %11, i64 %indvars.iv
  %18 = load i32, ptr %17, align 4
  %.not18 = icmp eq i32 %18, 0
  %19 = sub i32 %18, %.1
  %20 = icmp slt i32 %19, 0
  %spec.select19 = select i1 %20, i32 %18, i32 %.1
  %.2 = select i1 %.not18, i32 %.1, i32 %spec.select19
  %indvars.iv.next = add nuw nsw i64 %indvars.iv, 1
  %exitcond.not = icmp eq i64 %indvars.iv.next, %wide.trip.count
  br i1 %exitcond.not, label %._crit_edge, label %12, !llvm.loop !20

._crit_edge:                                      ; preds = %12, %0
  %.015.lcssa = phi i32 [ %spec.store.select, %0 ], [ %.2, %12 ]
  %21 = load ptr, ptr @MainLWLockArray, align 8
  %22 = getelementptr inbounds nuw i8, ptr %21, i64 1664
  tail call void @LWLockRelease(ptr noundef nonnull %22) #13
  ret i32 %.015.lcssa
}